; ModuleID = '21/1654.c'
source_filename = "21/1654.c"
target datalayout = "e-m:e-p270:32:32-p271:32:32-p272:64:64-i64:64-f80:128-n8:16:32:64-S128"
target triple = "x86_64-pc-linux-gnu"

@.str = private unnamed_addr constant [3 x i8] c"%d\00", align 1
@.str.1 = private unnamed_addr constant [4 x i8] c",%d\00", align 1

; Function Attrs: noinline nounwind uwtable
define dso_local i32 @main() #0 {
  %1 = alloca i32, align 4
  %2 = alloca i32, align 4
  %3 = alloca i32, align 4
  %4 = alloca [100 x i32], align 16
  %5 = alloca [100 x i32], align 16
  %6 = alloca i32, align 4
  %7 = alloca i32, align 4
  %8 = alloca i32, align 4
  %9 = alloca float, align 4
  %10 = alloca float, align 4
  %11 = alloca [100 x float], align 16
  %12 = alloca float, align 4
  store i32 0, i32* %1, align 4
  store i32 0, i32* %8, align 4
  store float 0.000000e+00, float* %10, align 4
  store float 0.000000e+00, float* %12, align 4
  %13 = call i32 (i8*, ...) @__isoc99_scanf(i8* getelementptr inbounds ([3 x i8], [3 x i8]* @.str, i64 0, i64 0), i32* %2)
  store i32 0, i32* %6, align 4
  br label %14

14:                                               ; preds = %30, %0
  %15 = load i32, i32* %6, align 4
  %16 = load i32, i32* %2, align 4
  %17 = icmp ult i32 %15, %16
  br i1 %17, label %18, label %33

18:                                               ; preds = %14
  %19 = load i32, i32* %6, align 4
  %20 = sext i32 %19 to i64
  %21 = getelementptr inbounds [100 x i32], [100 x i32]* %4, i64 0, i64 %20
  %22 = call i32 (i8*, ...) @__isoc99_scanf(i8* getelementptr inbounds ([3 x i8], [3 x i8]* @.str, i64 0, i64 0), i32* %21)
  %23 = load float, float* %10, align 4
  %24 = load i32, i32* %6, align 4
  %25 = sext i32 %24 to i64
  %26 = getelementptr inbounds [100 x i32], [100 x i32]* %4, i64 0, i64 %25
  %27 = load i32, i32* %26, align 4
  %28 = sitofp i32 %27 to float
  %29 = fadd float %23, %28
  store float %29, float* %10, align 4
  br label %30

30:                                               ; preds = %18
  %31 = load i32, i32* %6, align 4
  %32 = add nsw i32 %31, 1
  store i32 %32, i32* %6, align 4
  br label %14

33:                                               ; preds = %14
  store i32 0, i32* %6, align 4
  br label %34

34:                                               ; preds = %81, %33
  %35 = load i32, i32* %6, align 4
  %36 = load i32, i32* %2, align 4
  %37 = sub i32 %36, 1
  %38 = icmp ult i32 %35, %37
  br i1 %38, label %39, label %84

39:                                               ; preds = %34
  store i32 0, i32* %3, align 4
  br label %40

40:                                               ; preds = %77, %39
  %41 = load i32, i32* %3, align 4
  %42 = load i32, i32* %2, align 4
  %43 = load i32, i32* %6, align 4
  %44 = sub i32 %42, %43
  %45 = sub i32 %44, 1
  %46 = icmp ult i32 %41, %45
  br i1 %46, label %47, label %80

47:                                               ; preds = %40
  %48 = load i32, i32* %3, align 4
  %49 = sext i32 %48 to i64
  %50 = getelementptr inbounds [100 x i32], [100 x i32]* %4, i64 0, i64 %49
  %51 = load i32, i32* %50, align 4
  %52 = load i32, i32* %3, align 4
  %53 = add nsw i32 %52, 1
  %54 = sext i32 %53 to i64
  %55 = getelementptr inbounds [100 x i32], [100 x i32]* %4, i64 0, i64 %54
  %56 = load i32, i32* %55, align 4
  %57 = icmp sgt i32 %51, %56
  br i1 %57, label %58, label %76

58:                                               ; preds = %47
  %59 = load i32, i32* %3, align 4
  %60 = sext i32 %59 to i64
  %61 = getelementptr inbounds [100 x i32], [100 x i32]* %4, i64 0, i64 %60
  %62 = load i32, i32* %61, align 4
  store i32 %62, i32* %7, align 4
  %63 = load i32, i32* %3, align 4
  %64 = add nsw i32 %63, 1
  %65 = sext i32 %64 to i64
  %66 = getelementptr inbounds [100 x i32], [100 x i32]* %4, i64 0, i64 %65
  %67 = load i32, i32* %66, align 4
  %68 = load i32, i32* %3, align 4
  %69 = sext i32 %68 to i64
  %70 = getelementptr inbounds [100 x i32], [100 x i32]* %4, i64 0, i64 %69
  store i32 %67, i32* %70, align 4
  %71 = load i32, i32* %7, align 4
  %72 = load i32, i32* %3, align 4
  %73 = add nsw i32 %72, 1
  %74 = sext i32 %73 to i64
  %75 = getelementptr inbounds [100 x i32], [100 x i32]* %4, i64 0, i64 %74
  store i32 %71, i32* %75, align 4
  br label %76

76:                                               ; preds = %58, %47
  br label %77

77:                                               ; preds = %76
  %78 = load i32, i32* %3, align 4
  %79 = add nsw i32 %78, 1
  store i32 %79, i32* %3, align 4
  br label %40

80:                                               ; preds = %40
  br label %81

81:                                               ; preds = %80
  %82 = load i32, i32* %6, align 4
  %83 = add nsw i32 %82, 1
  store i32 %83, i32* %6, align 4
  br label %34

84:                                               ; preds = %34
  %85 = load float, float* %10, align 4
  %86 = load i32, i32* %2, align 4
  %87 = uitofp i32 %86 to float
  %88 = fdiv float %85, %87
  store float %88, float* %9, align 4
  store i32 0, i32* %6, align 4
  br label %89

89:                                               ; preds = %119, %84
  %90 = load i32, i32* %6, align 4
  %91 = load i32, i32* %2, align 4
  %92 = icmp ult i32 %90, %91
  br i1 %92, label %93, label %122

93:                                               ; preds = %89
  %94 = load i32, i32* %6, align 4
  %95 = sext i32 %94 to i64
  %96 = getelementptr inbounds [100 x i32], [100 x i32]* %4, i64 0, i64 %95
  %97 = load i32, i32* %96, align 4
  %98 = sitofp i32 %97 to float
  %99 = load float, float* %9, align 4
  %100 = fsub float %98, %99
  %101 = fpext float %100 to double
  %102 = call double @llvm.fabs.f64(double %101)
  %103 = fptrunc double %102 to float
  %104 = load i32, i32* %6, align 4
  %105 = sext i32 %104 to i64
  %106 = getelementptr inbounds [100 x float], [100 x float]* %11, i64 0, i64 %105
  store float %103, float* %106, align 4
  %107 = load i32, i32* %6, align 4
  %108 = sext i32 %107 to i64
  %109 = getelementptr inbounds [100 x float], [100 x float]* %11, i64 0, i64 %108
  %110 = load float, float* %109, align 4
  %111 = load float, float* %12, align 4
  %112 = fcmp ogt float %110, %111
  br i1 %112, label %113, label %118

113:                                              ; preds = %93
  %114 = load i32, i32* %6, align 4
  %115 = sext i32 %114 to i64
  %116 = getelementptr inbounds [100 x float], [100 x float]* %11, i64 0, i64 %115
  %117 = load float, float* %116, align 4
  store float %117, float* %12, align 4
  br label %118

118:                                              ; preds = %113, %93
  br label %119

119:                                              ; preds = %118
  %120 = load i32, i32* %6, align 4
  %121 = add nsw i32 %120, 1
  store i32 %121, i32* %6, align 4
  br label %89

122:                                              ; preds = %89
  store i32 0, i32* %6, align 4
  br label %123

123:                                              ; preds = %145, %122
  %124 = load i32, i32* %6, align 4
  %125 = load i32, i32* %2, align 4
  %126 = icmp ult i32 %124, %125
  br i1 %126, label %127, label %148

127:                                              ; preds = %123
  %128 = load i32, i32* %6, align 4
  %129 = sext i32 %128 to i64
  %130 = getelementptr inbounds [100 x float], [100 x float]* %11, i64 0, i64 %129
  %131 = load float, float* %130, align 4
  %132 = load float, float* %12, align 4
  %133 = fcmp oeq float %131, %132
  br i1 %133, label %134, label %144

134:                                              ; preds = %127
  %135 = load i32, i32* %6, align 4
  %136 = sext i32 %135 to i64
  %137 = getelementptr inbounds [100 x i32], [100 x i32]* %4, i64 0, i64 %136
  %138 = load i32, i32* %137, align 4
  %139 = load i32, i32* %8, align 4
  %140 = sext i32 %139 to i64
  %141 = getelementptr inbounds [100 x i32], [100 x i32]* %5, i64 0, i64 %140
  store i32 %138, i32* %141, align 4
  %142 = load i32, i32* %8, align 4
  %143 = add nsw i32 %142, 1
  store i32 %143, i32* %8, align 4
  br label %144

144:                                              ; preds = %134, %127
  br label %145

145:                                              ; preds = %144
  %146 = load i32, i32* %6, align 4
  %147 = add nsw i32 %146, 1
  store i32 %147, i32* %6, align 4
  br label %123

148:                                              ; preds = %123
  %149 = getelementptr inbounds [100 x i32], [100 x i32]* %5, i64 0, i64 0
  %150 = load i32, i32* %149, align 16
  %151 = call i32 (i8*, ...) @printf(i8* getelementptr inbounds ([3 x i8], [3 x i8]* @.str, i64 0, i64 0), i32 %150)
  %152 = load i32, i32* %8, align 4
  %153 = icmp sgt i32 %152, 1
  br i1 %153, label %154, label %169

154:                                              ; preds = %148
  store i32 1, i32* %6, align 4
  br label %155

155:                                              ; preds = %165, %154
  %156 = load i32, i32* %6, align 4
  %157 = load i32, i32* %8, align 4
  %158 = icmp slt i32 %156, %157
  br i1 %158, label %159, label %168

159:                                              ; preds = %155
  %160 = load i32, i32* %6, align 4
  %161 = sext i32 %160 to i64
  %162 = getelementptr inbounds [100 x i32], [100 x i32]* %5, i64 0, i64 %161
  %163 = load i32, i32* %162, align 4
  %164 = call i32 (i8*, ...) @printf(i8* getelementptr inbounds ([4 x i8], [4 x i8]* @.str.1, i64 0, i64 0), i32 %163)
  br label %165

165:                                              ; preds = %159
  %166 = load i32, i32* %6, align 4
  %167 = add nsw i32 %166, 1
  store i32 %167, i32* %6, align 4
  br label %155

168:                                              ; preds = %155
  br label %169

169:                                              ; preds = %168, %148
  ret i32 0
}

declare dso_local i32 @__isoc99_scanf(i8*, ...) #1

; Function Attrs: nounwind readnone speculatable willreturn
declare double @llvm.fabs.f64(double) #2

declare dso_local i32 @printf(i8*, ...) #1


!llvm.module.flags = !{!0}
!llvm.ident = !{!1}

!0 = !{i32 1, !"wchar_size", i32 4}
!1 = !{!"clang version 10.0.0-4ubuntu1 "}
